target datalayout = "e-m:e-p270:32:32-p271:32:32-p272:64:64-i64:64-i128:128-f80:128-n8:16:32:64-S128"
target triple = "x86_64-pc-linux-gnu"

%struct.lv_color_t = type { i8, i8, i8 }

@opa_saved = internal global i8 0, align 1
@.str.23 = private unnamed_addr constant [4 x i8] c"ABC\00", align 1

; Function Attrs: nounwind uwtable
define internal void @add_to_cell(ptr noundef %0, i32 noundef %1, i32 noundef %2) #0 {
  %4 = alloca ptr, align 8
  %5 = alloca i32, align 4
  %6 = alloca i32, align 4
  store ptr %0, ptr %4, align 8, !tbaa !8
  store i32 %1, ptr %5, align 4, !tbaa !3
  store i32 %2, ptr %6, align 4, !tbaa !3
  %7 = load ptr, ptr %4, align 8, !tbaa !8
  %8 = load i32, ptr %5, align 4, !tbaa !3
  %9 = load i32, ptr %6, align 4, !tbaa !3
  call void @lv_obj_set_grid_cell(ptr noundef %7, i32 noundef 1, i32 noundef %8, i32 noundef 1, i32 noundef 1, i32 noundef %9, i32 noundef 1)
  ret void
}

; Function Attrs: nounwind uwtable
define internal ptr @layer_obj_create(ptr noundef %0, i32 noundef %1, i32 noundef %2, i32 noundef %3) #0 {
  %5 = alloca ptr, align 8
  %6 = alloca i32, align 4
  %7 = alloca i32, align 4
  %8 = alloca i32, align 4
  %9 = alloca ptr, align 8
  %10 = alloca %struct.lv_color_t, align 1
  %11 = alloca i24, align 4
  %12 = alloca %struct.lv_color_t, align 1
  %13 = alloca i24, align 4
  %14 = alloca %struct.lv_color_t, align 1
  %15 = alloca i24, align 4
  %16 = alloca ptr, align 8
  store ptr %0, ptr %5, align 8, !tbaa !8
  store i32 %1, ptr %6, align 4, !tbaa !3
  store i32 %2, ptr %7, align 4, !tbaa !3
  store i32 %3, ptr %8, align 4, !tbaa !3
  call void @llvm.lifetime.start.p0(i64 8, ptr %9) #5
  %17 = load ptr, ptr %5, align 8, !tbaa !8
  %18 = call ptr @lv_obj_create(ptr noundef %17)
  store ptr %18, ptr %9, align 8, !tbaa !8
  %19 = load ptr, ptr %9, align 8, !tbaa !8
  call void @lv_obj_remove_style_all(ptr noundef %19)
  %20 = load ptr, ptr %9, align 8, !tbaa !8
  call void @lv_obj_set_size(ptr noundef %20, i32 noundef 45, i32 noundef 30)
  %21 = load ptr, ptr %9, align 8, !tbaa !8
  call void @lv_obj_set_style_bg_opa(ptr noundef %21, i8 noundef zeroext -1, i32 noundef 0)
  %22 = load ptr, ptr %9, align 8, !tbaa !8
  %23 = call i24 @lv_color_hex3(i32 noundef 4080)
  store i24 %23, ptr %10, align 1
  call void @llvm.memcpy.p0.p0.i64(ptr align 4 %11, ptr align 1 %10, i64 3, i1 false)
  %24 = load i24, ptr %11, align 4
  call void @lv_obj_set_style_bg_color(ptr noundef %22, i24 %24, i32 noundef 0)
  %25 = load ptr, ptr %9, align 8, !tbaa !8
  %26 = call i24 @lv_color_hex3(i32 noundef 3840)
  store i24 %26, ptr %12, align 1
  call void @llvm.memcpy.p0.p0.i64(ptr align 4 %13, ptr align 1 %12, i64 3, i1 false)
  %27 = load i24, ptr %13, align 4
  call void @lv_obj_set_style_bg_grad_color(ptr noundef %25, i24 %27, i32 noundef 0)
  %28 = load ptr, ptr %9, align 8, !tbaa !8
  call void @lv_obj_set_style_bg_grad_dir(ptr noundef %28, i32 noundef 1, i32 noundef 0)
  %29 = load ptr, ptr %9, align 8, !tbaa !8
  call void @lv_obj_set_style_border_width(ptr noundef %29, i32 noundef 3, i32 noundef 0)
  %30 = load ptr, ptr %9, align 8, !tbaa !8
  %31 = call i24 @lv_color_hex3(i32 noundef 0)
  store i24 %31, ptr %14, align 1
  call void @llvm.memcpy.p0.p0.i64(ptr align 4 %15, ptr align 1 %14, i64 3, i1 false)
  %32 = load i24, ptr %15, align 4
  call void @lv_obj_set_style_border_color(ptr noundef %30, i24 %32, i32 noundef 0)
  %33 = load ptr, ptr %9, align 8, !tbaa !8
  call void @lv_obj_set_style_transform_pivot_x(ptr noundef %33, i32 noundef 0, i32 noundef 0)
  %34 = load ptr, ptr %9, align 8, !tbaa !8
  call void @lv_obj_set_style_transform_pivot_y(ptr noundef %34, i32 noundef 0, i32 noundef 0)
  %35 = load ptr, ptr %9, align 8, !tbaa !8
  %36 = load i32, ptr %8, align 4, !tbaa !3
  call void @lv_obj_set_style_blend_mode(ptr noundef %35, i32 noundef %36, i32 noundef 0)
  %37 = load ptr, ptr %9, align 8, !tbaa !8
  %38 = load i8, ptr @opa_saved, align 1, !tbaa !7
  call void @lv_obj_set_style_opa(ptr noundef %37, i8 noundef zeroext %38, i32 noundef 0)
  %39 = load ptr, ptr %9, align 8, !tbaa !8
  %40 = load i32, ptr %6, align 4, !tbaa !3
  %41 = load i32, ptr %7, align 4, !tbaa !3
  call void @add_to_cell(ptr noundef %39, i32 noundef %40, i32 noundef %41)
  call void @llvm.lifetime.start.p0(i64 8, ptr %16) #5
  %42 = load ptr, ptr %9, align 8, !tbaa !8
  %43 = call ptr @lv_label_create(ptr noundef %42)
  store ptr %43, ptr %16, align 8, !tbaa !8
  %44 = load ptr, ptr %16, align 8, !tbaa !8
  call void @lv_label_set_text(ptr noundef %44, ptr noundef @.str.23)
  %45 = load ptr, ptr %16, align 8, !tbaa !8
  call void @lv_obj_center(ptr noundef %45)
  %46 = load ptr, ptr %9, align 8, !tbaa !8
  call void @llvm.lifetime.end.p0(i64 8, ptr %16) #5
  call void @llvm.lifetime.end.p0(i64 8, ptr %9) #5
  ret ptr %46
}