; Function Attrs: nounwind uwtable
define internal fastcc noundef ptr @layer_obj_create(ptr noundef %0, i32 noundef range(i32 0, 8) %1, i32 noundef range(i32 0, 7) %2) unnamed_addr #0 {
  %4 = tail call ptr @lv_obj_create(ptr noundef %0) #6
  tail call void @lv_obj_remove_style_all(ptr noundef %4) #6
  tail call void @lv_obj_set_size(ptr noundef %4, i32 noundef 45, i32 noundef 30) #6
  tail call void @lv_obj_set_style_bg_opa(ptr noundef %4, i8 noundef zeroext -1, i32 noundef 0) #6
  %5 = tail call i24 @lv_color_hex3(i32 noundef 4080) #6
  tail call void @lv_obj_set_style_bg_color(ptr noundef %4, i24 %5, i32 noundef 0) #6
  %6 = tail call i24 @lv_color_hex3(i32 noundef 3840) #6
  tail call void @lv_obj_set_style_bg_grad_color(ptr noundef %4, i24 %6, i32 noundef 0) #6
  tail call void @lv_obj_set_style_bg_grad_dir(ptr noundef %4, i32 noundef 1, i32 noundef 0) #6
  tail call void @lv_obj_set_style_border_width(ptr noundef %4, i32 noundef 3, i32 noundef 0) #6
  %7 = tail call i24 @lv_color_hex3(i32 noundef 0) #6
  tail call void @lv_obj_set_style_border_color(ptr noundef %4, i24 %7, i32 noundef 0) #6
  tail call void @lv_obj_set_style_transform_pivot_x(ptr noundef %4, i32 noundef 0, i32 noundef 0) #6
  tail call void @lv_obj_set_style_transform_pivot_y(ptr noundef %4, i32 noundef 0, i32 noundef 0) #6
  tail call void @lv_obj_set_style_blend_mode(ptr noundef %4, i32 noundef 0, i32 noundef 0) #6
  %8 = load i8, ptr @opa_saved, align 1, !tbaa !3
  tail call void @lv_obj_set_style_opa(ptr noundef %4, i8 noundef zeroext %8, i32 noundef 0) #6
  tail call void @lv_obj_set_grid_cell(ptr noundef %4, i32 noundef 1, i32 noundef range(i32 0, 9) %1, i32 noundef 1, i32 noundef 1, i32 noundef range(i32 -8, 21) %2, i32 noundef 1) #6
  %9 = tail call ptr @lv_label_create(ptr noundef %4) #6
  tail call void @lv_label_set_text(ptr noundef %9, ptr noundef nonnull @.str.23) #6
  tail call void @lv_obj_center(ptr noundef %9) #6
  ret ptr %4
}